target datalayout = "e-m:e-p270:32:32-p271:32:32-p272:64:64-i64:64-i128:128-f80:128-n8:16:32:64-S128"
target triple = "x86_64-pc-linux-gnu"

%struct.Query = type { i32, i32, i32, i64, i8, ptr, i32, i8, i8, i8, i8, i8, i8, i8, i8, i8, i8, i8, ptr, ptr, ptr, ptr, ptr, i32, ptr, ptr, i32, ptr, ptr, ptr, ptr, ptr, i8, ptr, ptr, ptr, ptr, ptr, ptr, ptr, i32, ptr, ptr, ptr, ptr, i32, i32 }
%struct.Node = type { i32 }
%struct.List = type { i32, i32, i32, ptr, [0 x %union.ListCell] }
%union.ListCell = type { ptr }
%struct.TargetEntry = type { %struct.Expr, ptr, i16, ptr, i32, i32, i16, i8 }
%struct.Expr = type { i32 }
%struct.Var = type { %struct.Expr, i32, i16, i32, i32, i32, ptr, i32, i32, i32, i16, i32 }
%struct.RangeTblEntry = type { i32, ptr, ptr, i32, i32, i8, i8, i32, i32, ptr, ptr, i8, i32, i32, ptr, ptr, ptr, ptr, ptr, i8, ptr, ptr, ptr, i32, i8, ptr, ptr, ptr, ptr, double, ptr, i8, i8, ptr }
%struct.RowExpr = type { %struct.Expr, ptr, i32, i32, ptr, i32 }

; Function Attrs: inlinehint nounwind uwtable
define internal i32 @list_length(ptr noundef %0) #3 {
  %2 = alloca ptr, align 8
  store ptr %0, ptr %2, align 8
  %3 = load ptr, ptr %2, align 8
  %4 = icmp ne ptr %3, null
  br i1 %4, label %5, label %9

5:                                                ; preds = %1
  %6 = load ptr, ptr %2, align 8
  %7 = getelementptr inbounds nuw %struct.List, ptr %6, i32 0, i32 1
  %8 = load i32, ptr %7, align 4
  br label %10

9:                                                ; preds = %1
  br label %10

10:                                               ; preds = %9, %5
  %11 = phi i32 [ %8, %5 ], [ 0, %9 ]
  ret i32 %11
}

; Function Attrs: nounwind uwtable
define internal i32 @count_rowexpr_columns(ptr noundef %0, ptr noundef %1) #0 {
  %3 = alloca i32, align 4
  %4 = alloca ptr, align 8
  %5 = alloca ptr, align 8
  %6 = alloca ptr, align 8
  %7 = alloca i16, align 2
  %8 = alloca ptr, align 8
  %9 = alloca ptr, align 8
  %10 = alloca i32, align 4
  store ptr %0, ptr %4, align 8
  store ptr %1, ptr %5, align 8
  %11 = load ptr, ptr %5, align 8
  %12 = icmp eq ptr %11, null
  br i1 %12, label %13, label %14

13:                                               ; preds = %2
  store i32 -1, ptr %3, align 4
  br label %97

14:                                               ; preds = %2
  %15 = load ptr, ptr %5, align 8
  %16 = getelementptr inbounds nuw %struct.Node, ptr %15, i32 0, i32 0
  %17 = load i32, ptr %16, align 4
  %18 = icmp eq i32 %17, 36
  br i1 %18, label %19, label %24

19:                                               ; preds = %14
  %20 = load ptr, ptr %5, align 8
  %21 = getelementptr inbounds nuw %struct.RowExpr, ptr %20, i32 0, i32 1
  %22 = load ptr, ptr %21, align 8
  %23 = call i32 @list_length(ptr noundef %22)
  store i32 %23, ptr %3, align 4
  br label %97

24:                                               ; preds = %14
  %25 = load ptr, ptr %5, align 8
  %26 = getelementptr inbounds nuw %struct.Node, ptr %25, i32 0, i32 0
  %27 = load i32, ptr %26, align 4
  %28 = icmp eq i32 %27, 6
  br i1 %28, label %29, label %96

29:                                               ; preds = %24
  call void @llvm.lifetime.start.p0(i64 8, ptr %6) #8
  %30 = load ptr, ptr %5, align 8
  store ptr %30, ptr %6, align 8
  call void @llvm.lifetime.start.p0(i64 2, ptr %7) #8
  %31 = load ptr, ptr %6, align 8
  %32 = getelementptr inbounds nuw %struct.Var, ptr %31, i32 0, i32 2
  %33 = load i16, ptr %32, align 8
  store i16 %33, ptr %7, align 2
  %34 = load i16, ptr %7, align 2
  %35 = sext i16 %34 to i32
  %36 = icmp sgt i32 %35, 0
  br i1 %36, label %37, label %92

37:                                               ; preds = %29
  %38 = load ptr, ptr %6, align 8
  %39 = getelementptr inbounds nuw %struct.Var, ptr %38, i32 0, i32 3
  %40 = load i32, ptr %39, align 4
  %41 = icmp eq i32 %40, 2249
  br i1 %41, label %42, label %92

42:                                               ; preds = %37
  call void @llvm.lifetime.start.p0(i64 8, ptr %8) #8
  %43 = load ptr, ptr %4, align 8
  %44 = load ptr, ptr %6, align 8
  %45 = getelementptr inbounds nuw %struct.Var, ptr %44, i32 0, i32 1
  %46 = load i32, ptr %45, align 4
  %47 = load ptr, ptr %6, align 8
  %48 = getelementptr inbounds nuw %struct.Var, ptr %47, i32 0, i32 7
  %49 = load i32, ptr %48, align 8
  %50 = call ptr @GetRTEByRangeTablePosn(ptr noundef %43, i32 noundef %46, i32 noundef %49)
  store ptr %50, ptr %8, align 8
  %51 = load ptr, ptr %8, align 8
  %52 = getelementptr inbounds nuw %struct.RangeTblEntry, ptr %51, i32 0, i32 3
  %53 = load i32, ptr %52, align 8
  %54 = icmp eq i32 %53, 1
  br i1 %54, label %55, label %88

55:                                               ; preds = %42
  call void @llvm.lifetime.start.p0(i64 8, ptr %9) #8
  %56 = load ptr, ptr %8, align 8
  %57 = getelementptr inbounds nuw %struct.RangeTblEntry, ptr %56, i32 0, i32 10
  %58 = load ptr, ptr %57, align 8
  %59 = getelementptr inbounds nuw %struct.Query, ptr %58, i32 0, i32 25
  %60 = load ptr, ptr %59, align 8
  %61 = load i16, ptr %7, align 2
  %62 = call ptr @get_tle_by_resno(ptr noundef %60, i16 noundef signext %61)
  store ptr %62, ptr %9, align 8
  %63 = load ptr, ptr %9, align 8
  %64 = icmp eq ptr %63, null
  br i1 %64, label %70, label %65

65:                                               ; preds = %55
  %66 = load ptr, ptr %9, align 8
  %67 = getelementptr inbounds nuw %struct.TargetEntry, ptr %66, i32 0, i32 7
  %68 = load i8, ptr %67, align 2, !range !4, !noundef !5
  %69 = trunc i8 %68 to i1
  br i1 %69, label %70, label %71

70:                                               ; preds = %65, %55
  store i32 -1, ptr %3, align 4
  store i32 1, ptr %10, align 4
  br label %85

71:                                               ; preds = %65
  %72 = load ptr, ptr %9, align 8
  %73 = getelementptr inbounds nuw %struct.TargetEntry, ptr %72, i32 0, i32 1
  %74 = load ptr, ptr %73, align 8
  store ptr %74, ptr %5, align 8
  %75 = load ptr, ptr %5, align 8
  %76 = getelementptr inbounds nuw %struct.Node, ptr %75, i32 0, i32 0
  %77 = load i32, ptr %76, align 4
  %78 = icmp eq i32 %77, 36
  br i1 %78, label %79, label %84

79:                                               ; preds = %71
  %80 = load ptr, ptr %5, align 8
  %81 = getelementptr inbounds nuw %struct.RowExpr, ptr %80, i32 0, i32 1
  %82 = load ptr, ptr %81, align 8
  %83 = call i32 @list_length(ptr noundef %82)
  store i32 %83, ptr %3, align 4
  store i32 1, ptr %10, align 4
  br label %85

84:                                               ; preds = %71
  store i32 0, ptr %10, align 4
  br label %85

85:                                               ; preds = %84, %79, %70
  call void @llvm.lifetime.end.p0(i64 8, ptr %9) #8
  %86 = load i32, ptr %10, align 4
  switch i32 %86, label %89 [
    i32 0, label %87
  ]

87:                                               ; preds = %85
  br label %88

88:                                               ; preds = %87, %42
  store i32 0, ptr %10, align 4
  br label %89

89:                                               ; preds = %88, %85
  call void @llvm.lifetime.end.p0(i64 8, ptr %8) #8
  %90 = load i32, ptr %10, align 4
  switch i32 %90, label %93 [
    i32 0, label %91
  ]

91:                                               ; preds = %89
  br label %92

92:                                               ; preds = %91, %37, %29
  store i32 0, ptr %10, align 4
  br label %93

93:                                               ; preds = %92, %89
  call void @llvm.lifetime.end.p0(i64 2, ptr %7) #8
  call void @llvm.lifetime.end.p0(i64 8, ptr %6) #8
  %94 = load i32, ptr %10, align 4
  switch i32 %94, label %99 [
    i32 0, label %95
    i32 1, label %97
  ]

95:                                               ; preds = %93
  br label %96

96:                                               ; preds = %95, %24
  store i32 -1, ptr %3, align 4
  br label %97

97:                                               ; preds = %96, %93, %19, %13
  %98 = load i32, ptr %3, align 4
  ret i32 %98

99:                                               ; preds = %93
  unreachable
}