; Function Attrs: nounwind uwtable
define internal fastcc i32 @count_rowexpr_columns(ptr noundef %0, ptr noundef readonly captures(address_is_null) %1) unnamed_addr #0 {
  %3 = icmp eq ptr %1, null
  br i1 %3, label %list_length.exit, label %4

4:                                                ; preds = %2
  %5 = load i32, ptr %1, align 4
  switch i32 %5, label %list_length.exit [
    i32 36, label %6
    i32 6, label %9
  ]

6:                                                ; preds = %4
  %7 = getelementptr inbounds nuw i8, ptr %1, i64 8
  %8 = load ptr, ptr %7, align 8
  %.not.i = icmp eq ptr %8, null
  br i1 %.not.i, label %list_length.exit, label %list_length.exit.sink.split

9:                                                ; preds = %4
  %10 = getelementptr inbounds nuw i8, ptr %1, i64 8
  %11 = load i16, ptr %10, align 8
  %12 = icmp sgt i16 %11, 0
  br i1 %12, label %13, label %list_length.exit

13:                                               ; preds = %9
  %14 = getelementptr inbounds nuw i8, ptr %1, i64 12
  %15 = load i32, ptr %14, align 4
  %16 = icmp eq i32 %15, 2249
  br i1 %16, label %17, label %list_length.exit

17:                                               ; preds = %13
  %18 = getelementptr inbounds nuw i8, ptr %1, i64 4
  %19 = load i32, ptr %18, align 4
  %20 = getelementptr inbounds nuw i8, ptr %1, i64 32
  %21 = load i32, ptr %20, align 8
  %22 = tail call ptr @GetRTEByRangeTablePosn(ptr noundef %0, i32 noundef %19, i32 noundef %21) #11
  %23 = getelementptr inbounds nuw i8, ptr %22, i64 24
  %24 = load i32, ptr %23, align 8
  %25 = icmp eq i32 %24, 1
  br i1 %25, label %26, label %list_length.exit

26:                                               ; preds = %17
  %27 = getelementptr inbounds nuw i8, ptr %22, i64 56
  %28 = load ptr, ptr %27, align 8
  %29 = getelementptr inbounds nuw i8, ptr %28, i64 112
  %30 = load ptr, ptr %29, align 8
  %31 = tail call ptr @get_tle_by_resno(ptr noundef %30, i16 noundef signext %11) #11
  %32 = icmp eq ptr %31, null
  br i1 %32, label %list_length.exit, label %33

33:                                               ; preds = %26
  %34 = getelementptr inbounds nuw i8, ptr %31, i64 42
  %35 = load i8, ptr %34, align 2, !range !5, !noundef !4
  %36 = trunc nuw i8 %35 to i1
  br i1 %36, label %list_length.exit, label %37

37:                                               ; preds = %33
  %38 = getelementptr inbounds nuw i8, ptr %31, i64 8
  %39 = load ptr, ptr %38, align 8
  %40 = load i32, ptr %39, align 4
  %41 = icmp eq i32 %40, 36
  br i1 %41, label %42, label %list_length.exit

42:                                               ; preds = %37
  %43 = getelementptr inbounds nuw i8, ptr %39, i64 8
  %44 = load ptr, ptr %43, align 8
  %.not.i30 = icmp eq ptr %44, null
  br i1 %.not.i30, label %list_length.exit, label %list_length.exit.sink.split

list_length.exit.sink.split:                      ; preds = %42, %6
  %.sink40 = phi ptr [ %8, %6 ], [ %44, %42 ]
  %45 = getelementptr inbounds nuw i8, ptr %.sink40, i64 4
  %46 = load i32, ptr %45, align 4
  br label %list_length.exit

list_length.exit:                                 ; preds = %list_length.exit.sink.split, %37, %17, %9, %13, %4, %42, %26, %33, %6, %2
  %.023 = phi i32 [ -1, %2 ], [ 0, %6 ], [ 0, %42 ], [ -1, %26 ], [ -1, %33 ], [ -1, %4 ], [ -1, %13 ], [ -1, %9 ], [ -1, %17 ], [ -1, %37 ], [ %46, %list_length.exit.sink.split ]
  ret i32 %.023
}